; ModuleID = '57/128.c'
source_filename = "57/128.c"
target datalayout = "e-m:e-p270:32:32-p271:32:32-p272:64:64-i64:64-f80:128-n8:16:32:64-S128"
target triple = "x86_64-pc-linux-gnu"

@.str = private unnamed_addr constant [4 x i8] c"%d\0A\00", align 1
@.str.1 = private unnamed_addr constant [3 x i8] c"%c\00", align 1
@.str.2 = private unnamed_addr constant [2 x i8] c"\0A\00", align 1

; Function Attrs: noinline nounwind uwtable
define dso_local i32 @main() #0 {
  %1 = alloca i32, align 4
  %2 = alloca i32, align 4
  %3 = alloca i32, align 4
  %4 = alloca i32, align 4
  %5 = alloca i32, align 4
  %6 = alloca i32, align 4
  %7 = alloca i32, align 4
  %8 = alloca i32, align 4
  %9 = alloca [51 x [1000 x i8]], align 16
  store i32 0, i32* %1, align 4
  %10 = call i32 (i8*, ...) @__isoc99_scanf(i8* getelementptr inbounds ([4 x i8], [4 x i8]* @.str, i64 0, i64 0), i32* %4)
  store i32 1, i32* %2, align 4
  br label %11

11:                                               ; preds = %123, %0
  %12 = load i32, i32* %2, align 4
  %13 = load i32, i32* %4, align 4
  %14 = icmp sle i32 %12, %13
  br i1 %14, label %15, label %126

15:                                               ; preds = %11
  %16 = load i32, i32* %2, align 4
  %17 = sext i32 %16 to i64
  %18 = getelementptr inbounds [51 x [1000 x i8]], [51 x [1000 x i8]]* %9, i64 0, i64 %17
  %19 = getelementptr inbounds [1000 x i8], [1000 x i8]* %18, i64 0, i64 0
  %20 = call i32 (i8*, ...) bitcast (i32 (...)* @gets to i32 (i8*, ...)*)(i8* %19)
  %21 = load i32, i32* %2, align 4
  %22 = sext i32 %21 to i64
  %23 = getelementptr inbounds [51 x [1000 x i8]], [51 x [1000 x i8]]* %9, i64 0, i64 %22
  %24 = getelementptr inbounds [1000 x i8], [1000 x i8]* %23, i64 0, i64 0
  %25 = call i64 @strlen(i8* %24) #3
  %26 = trunc i64 %25 to i32
  store i32 %26, i32* %8, align 4
  %27 = load i32, i32* %2, align 4
  %28 = sext i32 %27 to i64
  %29 = getelementptr inbounds [51 x [1000 x i8]], [51 x [1000 x i8]]* %9, i64 0, i64 %28
  %30 = load i32, i32* %8, align 4
  %31 = sub nsw i32 %30, 1
  %32 = sext i32 %31 to i64
  %33 = getelementptr inbounds [1000 x i8], [1000 x i8]* %29, i64 0, i64 %32
  %34 = load i8, i8* %33, align 1
  %35 = sext i8 %34 to i32
  %36 = icmp eq i32 %35, 114
  br i1 %36, label %37, label %57

37:                                               ; preds = %15
  store i32 0, i32* %3, align 4
  br label %38

38:                                               ; preds = %53, %37
  %39 = load i32, i32* %3, align 4
  %40 = load i32, i32* %8, align 4
  %41 = sub nsw i32 %40, 2
  %42 = icmp slt i32 %39, %41
  br i1 %42, label %43, label %56

43:                                               ; preds = %38
  %44 = load i32, i32* %2, align 4
  %45 = sext i32 %44 to i64
  %46 = getelementptr inbounds [51 x [1000 x i8]], [51 x [1000 x i8]]* %9, i64 0, i64 %45
  %47 = load i32, i32* %3, align 4
  %48 = sext i32 %47 to i64
  %49 = getelementptr inbounds [1000 x i8], [1000 x i8]* %46, i64 0, i64 %48
  %50 = load i8, i8* %49, align 1
  %51 = sext i8 %50 to i32
  %52 = call i32 (i8*, ...) @printf(i8* getelementptr inbounds ([3 x i8], [3 x i8]* @.str.1, i64 0, i64 0), i32 %51)
  br label %53

53:                                               ; preds = %43
  %54 = load i32, i32* %3, align 4
  %55 = add nsw i32 %54, 1
  store i32 %55, i32* %3, align 4
  br label %38

56:                                               ; preds = %38
  br label %121

57:                                               ; preds = %15
  %58 = load i32, i32* %2, align 4
  %59 = sext i32 %58 to i64
  %60 = getelementptr inbounds [51 x [1000 x i8]], [51 x [1000 x i8]]* %9, i64 0, i64 %59
  %61 = load i32, i32* %8, align 4
  %62 = sub nsw i32 %61, 1
  %63 = sext i32 %62 to i64
  %64 = getelementptr inbounds [1000 x i8], [1000 x i8]* %60, i64 0, i64 %63
  %65 = load i8, i8* %64, align 1
  %66 = sext i8 %65 to i32
  %67 = icmp eq i32 %66, 121
  br i1 %67, label %68, label %88

68:                                               ; preds = %57
  store i32 0, i32* %3, align 4
  br label %69

69:                                               ; preds = %84, %68
  %70 = load i32, i32* %3, align 4
  %71 = load i32, i32* %8, align 4
  %72 = sub nsw i32 %71, 2
  %73 = icmp slt i32 %70, %72
  br i1 %73, label %74, label %87

74:                                               ; preds = %69
  %75 = load i32, i32* %2, align 4
  %76 = sext i32 %75 to i64
  %77 = getelementptr inbounds [51 x [1000 x i8]], [51 x [1000 x i8]]* %9, i64 0, i64 %76
  %78 = load i32, i32* %3, align 4
  %79 = sext i32 %78 to i64
  %80 = getelementptr inbounds [1000 x i8], [1000 x i8]* %77, i64 0, i64 %79
  %81 = load i8, i8* %80, align 1
  %82 = sext i8 %81 to i32
  %83 = call i32 (i8*, ...) @printf(i8* getelementptr inbounds ([3 x i8], [3 x i8]* @.str.1, i64 0, i64 0), i32 %82)
  br label %84

84:                                               ; preds = %74
  %85 = load i32, i32* %3, align 4
  %86 = add nsw i32 %85, 1
  store i32 %86, i32* %3, align 4
  br label %69

87:                                               ; preds = %69
  br label %120

88:                                               ; preds = %57
  %89 = load i32, i32* %2, align 4
  %90 = sext i32 %89 to i64
  %91 = getelementptr inbounds [51 x [1000 x i8]], [51 x [1000 x i8]]* %9, i64 0, i64 %90
  %92 = load i32, i32* %8, align 4
  %93 = sub nsw i32 %92, 1
  %94 = sext i32 %93 to i64
  %95 = getelementptr inbounds [1000 x i8], [1000 x i8]* %91, i64 0, i64 %94
  %96 = load i8, i8* %95, align 1
  %97 = sext i8 %96 to i32
  %98 = icmp eq i32 %97, 103
  br i1 %98, label %99, label %119

99:                                               ; preds = %88
  store i32 0, i32* %3, align 4
  br label %100

100:                                              ; preds = %115, %99
  %101 = load i32, i32* %3, align 4
  %102 = load i32, i32* %8, align 4
  %103 = sub nsw i32 %102, 3
  %104 = icmp slt i32 %101, %103
  br i1 %104, label %105, label %118

105:                                              ; preds = %100
  %106 = load i32, i32* %2, align 4
  %107 = sext i32 %106 to i64
  %108 = getelementptr inbounds [51 x [1000 x i8]], [51 x [1000 x i8]]* %9, i64 0, i64 %107
  %109 = load i32, i32* %3, align 4
  %110 = sext i32 %109 to i64
  %111 = getelementptr inbounds [1000 x i8], [1000 x i8]* %108, i64 0, i64 %110
  %112 = load i8, i8* %111, align 1
  %113 = sext i8 %112 to i32
  %114 = call i32 (i8*, ...) @printf(i8* getelementptr inbounds ([3 x i8], [3 x i8]* @.str.1, i64 0, i64 0), i32 %113)
  br label %115

115:                                              ; preds = %105
  %116 = load i32, i32* %3, align 4
  %117 = add nsw i32 %116, 1
  store i32 %117, i32* %3, align 4
  br label %100

118:                                              ; preds = %100
  br label %119

119:                                              ; preds = %118, %88
  br label %120

120:                                              ; preds = %119, %87
  br label %121

121:                                              ; preds = %120, %56
  %122 = call i32 (i8*, ...) @printf(i8* getelementptr inbounds ([2 x i8], [2 x i8]* @.str.2, i64 0, i64 0))
  br label %123

123:                                              ; preds = %121
  %124 = load i32, i32* %2, align 4
  %125 = add nsw i32 %124, 1
  store i32 %125, i32* %2, align 4
  br label %11

126:                                              ; preds = %11
  %127 = load i32, i32* %1, align 4
  ret i32 %127
}

declare dso_local i32 @__isoc99_scanf(i8*, ...) #1

declare dso_local i32 @gets(...) #1

; Function Attrs: nounwind readonly
declare dso_local i64 @strlen(i8*) #2

declare dso_local i32 @printf(i8*, ...) #1


!llvm.module.flags = !{!0}
!llvm.ident = !{!1}

!0 = !{i32 1, !"wchar_size", i32 4}
!1 = !{!"clang version 10.0.0-4ubuntu1 "}
